target datalayout = "e-m:e-p270:32:32-p271:32:32-p272:64:64-i64:64-i128:128-f80:128-n8:16:32:64-S128"
target triple = "x86_64-pc-linux-gnu"

@.str.31 = private unnamed_addr constant [5 x i8] c", %s\00", align 1
@hf_zboss_page = internal global i32 0, align 4
@hf_zboss_channel = internal global i32 0, align 4
@hf_zboss_direction = internal global i32 0, align 4
@hf_zboss_trace_number = internal global i32 0, align 4
@ett_ieee802154_zboss = internal global i32 0, align 4
@.str.732 = private unnamed_addr constant [11 x i8] c"ZBOSS dump\00", align 1
@proto_zboss = internal global i32 0, align 4
@ieee802154_fcs_type = internal global i32 1, align 4
@.str.952 = private unnamed_addr constant [3 x i8] c"IN\00", align 1
@.str.953 = private unnamed_addr constant [4 x i8] c"OUT\00", align 1
@.str.1159 = private unnamed_addr constant [10 x i8] c", page %u\00", align 1
@.str.1160 = private unnamed_addr constant [13 x i8] c", channel %u\00", align 1
@__const.ieee802154_fcs_type_len.fcs_type_lengths = private unnamed_addr constant [3 x i32] [i32 2, i32 2, i32 4], align 4

; Function Attrs: nounwind null_pointer_is_valid sspstrong uwtable
define internal i32 @ieee802154_fcs_type_len(i32 noundef %0) #8 {
  %2 = alloca i32, align 4
  %3 = alloca i32, align 4
  %4 = alloca [3 x i32], align 4
  %5 = alloca i32, align 4
  store i32 %0, ptr %3, align 4
  call void @llvm.lifetime.start.p0(i64 12, ptr %4) #17
  call void @llvm.memcpy.p0.p0.i64(ptr align 4 %4, ptr align 4 @__const.ieee802154_fcs_type_len.fcs_type_lengths, i64 12, i1 false)
  %6 = load i32, ptr %3, align 4
  %7 = zext i32 %6 to i64
  %8 = icmp ult i64 %7, 3
  br i1 %8, label %9, label %14

9:                                                ; preds = %1
  %10 = load i32, ptr %3, align 4
  %11 = zext i32 %10 to i64
  %12 = getelementptr [3 x i32], ptr %4, i64 0, i64 %11
  %13 = load i32, ptr %12, align 4
  store i32 %13, ptr %2, align 4
  store i32 1, ptr %5, align 4
  br label %15

14:                                               ; preds = %1
  store i32 0, ptr %2, align 4
  store i32 1, ptr %5, align 4
  br label %15

15:                                               ; preds = %14, %9
  call void @llvm.lifetime.end.p0(i64 12, ptr %4) #17
  %16 = load i32, ptr %2, align 4
  ret i32 %16
}

; Function Attrs: null_pointer_is_valid sspstrong uwtable
define internal ptr @dissect_zboss_specific(ptr noundef %0, ptr noundef %1, ptr noundef %2) #0 {
  %4 = alloca ptr, align 8
  %5 = alloca ptr, align 8
  %6 = alloca ptr, align 8
  %7 = alloca ptr, align 8
  %8 = alloca ptr, align 8
  %9 = alloca ptr, align 8
  %10 = alloca i32, align 4
  %11 = alloca i32, align 4
  %12 = alloca i32, align 4
  %13 = alloca i32, align 4
  %14 = alloca i32, align 4
  store ptr %0, ptr %5, align 8
  store ptr %1, ptr %6, align 8
  store ptr %2, ptr %7, align 8
  call void @llvm.lifetime.start.p0(i64 8, ptr %8) #17
  call void @llvm.lifetime.start.p0(i64 8, ptr %9) #17
  call void @llvm.lifetime.start.p0(i64 4, ptr %10) #17
  store i32 0, ptr %10, align 4
  call void @llvm.lifetime.start.p0(i64 4, ptr %11) #17
  call void @llvm.lifetime.start.p0(i64 4, ptr %12) #17
  call void @llvm.lifetime.start.p0(i64 4, ptr %13) #17
  %15 = load ptr, ptr %5, align 8
  %16 = call i32 @tvb_captured_length(ptr noundef %15)
  %17 = icmp ugt i32 %16, 5
  br i1 %17, label %18, label %101

18:                                               ; preds = %3
  %19 = load ptr, ptr %5, align 8
  %20 = load i32, ptr %10, align 4
  %21 = add i32 %20, 1
  store i32 %21, ptr %10, align 4
  %22 = call zeroext i8 @tvb_get_uint8(ptr noundef %19, i32 noundef %20)
  %23 = zext i8 %22 to i32
  %24 = icmp eq i32 %23, 90
  br i1 %24, label %25, label %100

25:                                               ; preds = %18
  %26 = load ptr, ptr %5, align 8
  %27 = load i32, ptr %10, align 4
  %28 = add i32 %27, 1
  store i32 %28, ptr %10, align 4
  %29 = call zeroext i8 @tvb_get_uint8(ptr noundef %26, i32 noundef %27)
  %30 = zext i8 %29 to i32
  %31 = icmp eq i32 %30, 66
  br i1 %31, label %32, label %100

32:                                               ; preds = %25
  %33 = load ptr, ptr %5, align 8
  %34 = load i32, ptr %10, align 4
  %35 = add i32 %34, 1
  store i32 %35, ptr %10, align 4
  %36 = call zeroext i8 @tvb_get_uint8(ptr noundef %33, i32 noundef %34)
  %37 = zext i8 %36 to i32
  %38 = icmp eq i32 %37, 79
  br i1 %38, label %39, label %100

39:                                               ; preds = %32
  %40 = load ptr, ptr %5, align 8
  %41 = load i32, ptr %10, align 4
  %42 = add i32 %41, 1
  store i32 %42, ptr %10, align 4
  %43 = call zeroext i8 @tvb_get_uint8(ptr noundef %40, i32 noundef %41)
  %44 = zext i8 %43 to i32
  %45 = icmp eq i32 %44, 83
  br i1 %45, label %46, label %100

46:                                               ; preds = %39
  %47 = load ptr, ptr %5, align 8
  %48 = load i32, ptr %10, align 4
  %49 = add i32 %48, 1
  store i32 %49, ptr %10, align 4
  %50 = call zeroext i8 @tvb_get_uint8(ptr noundef %47, i32 noundef %48)
  %51 = zext i8 %50 to i32
  %52 = icmp eq i32 %51, 83
  br i1 %52, label %53, label %100

53:                                               ; preds = %46
  %54 = load ptr, ptr %7, align 8
  %55 = load i32, ptr @proto_zboss, align 4
  %56 = load ptr, ptr %5, align 8
  %57 = load ptr, ptr %5, align 8
  %58 = call i32 @tvb_captured_length(ptr noundef %57)
  %59 = call ptr (ptr, i32, ptr, i32, i32, ptr, ...) @proto_tree_add_protocol_format(ptr noundef %54, i32 noundef %55, ptr noundef %56, i32 noundef 0, i32 noundef %58, ptr noundef @.str.732)
  store ptr %59, ptr %9, align 8
  %60 = load ptr, ptr %9, align 8
  %61 = load i32, ptr @ett_ieee802154_zboss, align 4
  %62 = call ptr @proto_item_add_subtree(ptr noundef %60, i32 noundef %61)
  store ptr %62, ptr %8, align 8
  %63 = load ptr, ptr %8, align 8
  %64 = load i32, ptr @hf_zboss_direction, align 4
  %65 = load ptr, ptr %5, align 8
  %66 = load i32, ptr %10, align 4
  %67 = call ptr @proto_tree_add_item_ret_uint(ptr noundef %63, i32 noundef %64, ptr noundef %65, i32 noundef %66, i32 noundef 1, i32 noundef 0, ptr noundef %11)
  %68 = load ptr, ptr %9, align 8
  %69 = load i32, ptr %11, align 4
  %70 = icmp ne i32 %69, 0
  %71 = select i1 %70, ptr @.str.953, ptr @.str.952
  call void (ptr, ptr, ...) @proto_item_append_text(ptr noundef %68, ptr noundef @.str.31, ptr noundef %71)
  %72 = load ptr, ptr %8, align 8
  %73 = load i32, ptr @hf_zboss_page, align 4
  %74 = load ptr, ptr %5, align 8
  %75 = load i32, ptr %10, align 4
  %76 = call ptr @proto_tree_add_item_ret_uint(ptr noundef %72, i32 noundef %73, ptr noundef %74, i32 noundef %75, i32 noundef 1, i32 noundef 0, ptr noundef %12)
  %77 = load ptr, ptr %9, align 8
  %78 = load i32, ptr %12, align 4
  call void (ptr, ptr, ...) @proto_item_append_text(ptr noundef %77, ptr noundef @.str.1159, i32 noundef %78)
  %79 = load i32, ptr %10, align 4
  %80 = add i32 %79, 1
  store i32 %80, ptr %10, align 4
  %81 = load ptr, ptr %8, align 8
  %82 = load i32, ptr @hf_zboss_channel, align 4
  %83 = load ptr, ptr %5, align 8
  %84 = load i32, ptr %10, align 4
  %85 = call ptr @proto_tree_add_item_ret_uint(ptr noundef %81, i32 noundef %82, ptr noundef %83, i32 noundef %84, i32 noundef 1, i32 noundef 0, ptr noundef %13)
  %86 = load ptr, ptr %9, align 8
  %87 = load i32, ptr %13, align 4
  call void (ptr, ptr, ...) @proto_item_append_text(ptr noundef %86, ptr noundef @.str.1160, i32 noundef %87)
  %88 = load i32, ptr %10, align 4
  %89 = add i32 %88, 1
  store i32 %89, ptr %10, align 4
  %90 = load ptr, ptr %8, align 8
  %91 = load i32, ptr @hf_zboss_trace_number, align 4
  %92 = load ptr, ptr %5, align 8
  %93 = load i32, ptr %10, align 4
  %94 = call ptr @proto_tree_add_item(ptr noundef %90, i32 noundef %91, ptr noundef %92, i32 noundef %93, i32 noundef 4, i32 noundef -2147483648)
  %95 = load i32, ptr %10, align 4
  %96 = add i32 %95, 4
  store i32 %96, ptr %10, align 4
  %97 = load ptr, ptr %5, align 8
  %98 = load i32, ptr %10, align 4
  %99 = call ptr @tvb_new_subset_remaining(ptr noundef %97, i32 noundef %98)
  store ptr %99, ptr %4, align 8
  store i32 1, ptr %14, align 4
  br label %103

100:                                              ; preds = %46, %39, %32, %25, %18
  br label %101

101:                                              ; preds = %100, %3
  %102 = load ptr, ptr %5, align 8
  store ptr %102, ptr %4, align 8
  store i32 1, ptr %14, align 4
  br label %103

103:                                              ; preds = %101, %53
  call void @llvm.lifetime.end.p0(i64 4, ptr %13) #17
  call void @llvm.lifetime.end.p0(i64 4, ptr %12) #17
  call void @llvm.lifetime.end.p0(i64 4, ptr %11) #17
  call void @llvm.lifetime.end.p0(i64 4, ptr %10) #17
  call void @llvm.lifetime.end.p0(i64 8, ptr %9) #17
  call void @llvm.lifetime.end.p0(i64 8, ptr %8) #17
  %104 = load ptr, ptr %4, align 8
  ret ptr %104
}

; Function Attrs: null_pointer_is_valid sspstrong uwtable
define internal i32 @dissect_ieee802154(ptr noundef %0, ptr noundef %1, ptr noundef %2, ptr noundef %3) #0 {
  %5 = alloca ptr, align 8
  %6 = alloca ptr, align 8
  %7 = alloca ptr, align 8
  %8 = alloca ptr, align 8
  %9 = alloca ptr, align 8
  %10 = alloca i32, align 4
  %11 = alloca i32, align 4
  store ptr %0, ptr %5, align 8
  store ptr %1, ptr %6, align 8
  store ptr %2, ptr %7, align 8
  store ptr %3, ptr %8, align 8
  call void @llvm.lifetime.start.p0(i64 8, ptr %9) #17
  %12 = load ptr, ptr %5, align 8
  %13 = load ptr, ptr %6, align 8
  %14 = load ptr, ptr %7, align 8
  %15 = call ptr @dissect_zboss_specific(ptr noundef %12, ptr noundef %13, ptr noundef %14)
  store ptr %15, ptr %9, align 8
  call void @llvm.lifetime.start.p0(i64 4, ptr %10) #17
  store i32 0, ptr %10, align 4
  call void @llvm.lifetime.start.p0(i64 4, ptr %11) #17
  %16 = load i32, ptr @ieee802154_fcs_type, align 4
  %17 = call i32 @ieee802154_fcs_type_len(i32 noundef %16)
  store i32 %17, ptr %11, align 4
  %18 = load i32, ptr @ieee802154_fcs_type, align 4
  %19 = icmp eq i32 %18, 0
  br i1 %19, label %20, label %21

20:                                               ; preds = %4
  store i32 1, ptr %10, align 4
  br label %21

21:                                               ; preds = %20, %4
  %22 = load ptr, ptr %9, align 8
  %23 = load ptr, ptr %5, align 8
  %24 = icmp ne ptr %22, %23
  br i1 %24, label %25, label %26

25:                                               ; preds = %21
  store i32 3, ptr %10, align 4
  store i32 2, ptr %11, align 4
  br label %26

26:                                               ; preds = %25, %21
  %27 = load ptr, ptr %9, align 8
  %28 = load ptr, ptr %6, align 8
  %29 = load ptr, ptr %7, align 8
  %30 = load i32, ptr %11, align 4
  %31 = load i32, ptr %10, align 4
  call void @dissect_ieee802154_common(ptr noundef %27, ptr noundef %28, ptr noundef %29, i32 noundef %30, i32 noundef %31)
  %32 = load ptr, ptr %5, align 8
  %33 = call i32 @tvb_captured_length(ptr noundef %32)
  call void @llvm.lifetime.end.p0(i64 4, ptr %11) #17
  call void @llvm.lifetime.end.p0(i64 4, ptr %10) #17
  call void @llvm.lifetime.end.p0(i64 8, ptr %9) #17
  ret i32 %33
}