; Function Attrs: null_pointer_is_valid sspstrong uwtable
define internal i32 @dissect_ieee802154(ptr noundef %0, ptr noundef %1, ptr noundef %2, ptr readnone captures(none) %3) #0 {
  %5 = alloca i32, align 4
  %6 = alloca i32, align 4
  %7 = alloca i32, align 4
  call void @llvm.lifetime.start.p0(i64 4, ptr nonnull %5) #19
  call void @llvm.lifetime.start.p0(i64 4, ptr nonnull %6) #19
  call void @llvm.lifetime.start.p0(i64 4, ptr nonnull %7) #19
  %8 = tail call i32 @tvb_captured_length(ptr noundef %0)
  %9 = icmp ugt i32 %8, 5
  br i1 %9, label %10, label %dissect_zboss_specific.exit

10:                                               ; preds = %4
  %11 = tail call zeroext i8 @tvb_get_uint8(ptr noundef %0, i32 noundef 0)
  %12 = icmp eq i8 %11, 90
  br i1 %12, label %13, label %dissect_zboss_specific.exit

13:                                               ; preds = %10
  %14 = tail call zeroext i8 @tvb_get_uint8(ptr noundef %0, i32 noundef 1)
  %15 = icmp eq i8 %14, 66
  br i1 %15, label %16, label %dissect_zboss_specific.exit

16:                                               ; preds = %13
  %17 = tail call zeroext i8 @tvb_get_uint8(ptr noundef %0, i32 noundef 2)
  %18 = icmp eq i8 %17, 79
  br i1 %18, label %19, label %dissect_zboss_specific.exit

19:                                               ; preds = %16
  %20 = tail call zeroext i8 @tvb_get_uint8(ptr noundef %0, i32 noundef 3)
  %21 = icmp eq i8 %20, 83
  br i1 %21, label %22, label %dissect_zboss_specific.exit

22:                                               ; preds = %19
  %23 = tail call zeroext i8 @tvb_get_uint8(ptr noundef %0, i32 noundef 4)
  %24 = icmp eq i8 %23, 83
  br i1 %24, label %25, label %dissect_zboss_specific.exit

25:                                               ; preds = %22
  %26 = load i32, ptr @proto_zboss, align 4
  %27 = tail call i32 @tvb_captured_length(ptr noundef %0)
  %28 = tail call ptr (ptr, i32, ptr, i32, i32, ptr, ...) @proto_tree_add_protocol_format(ptr noundef %2, i32 noundef %26, ptr noundef %0, i32 noundef 0, i32 noundef %27, ptr noundef nonnull @.str.732)
  %29 = load i32, ptr @ett_ieee802154_zboss, align 4
  %30 = tail call ptr @proto_item_add_subtree(ptr noundef %28, i32 noundef %29)
  %31 = load i32, ptr @hf_zboss_direction, align 4
  %32 = call ptr @proto_tree_add_item_ret_uint(ptr noundef %30, i32 noundef %31, ptr noundef %0, i32 noundef 5, i32 noundef 1, i32 noundef 0, ptr noundef nonnull %5)
  %33 = load i32, ptr %5, align 4
  %.not.i = icmp eq i32 %33, 0
  %34 = select i1 %.not.i, ptr @.str.952, ptr @.str.953
  call void (ptr, ptr, ...) @proto_item_append_text(ptr noundef %28, ptr noundef nonnull @.str.31, ptr noundef nonnull %34)
  %35 = load i32, ptr @hf_zboss_page, align 4
  %36 = call ptr @proto_tree_add_item_ret_uint(ptr noundef %30, i32 noundef %35, ptr noundef %0, i32 noundef 5, i32 noundef 1, i32 noundef 0, ptr noundef nonnull %6)
  %37 = load i32, ptr %6, align 4
  call void (ptr, ptr, ...) @proto_item_append_text(ptr noundef %28, ptr noundef nonnull @.str.1159, i32 noundef %37)
  %38 = load i32, ptr @hf_zboss_channel, align 4
  %39 = call ptr @proto_tree_add_item_ret_uint(ptr noundef %30, i32 noundef %38, ptr noundef %0, i32 noundef 6, i32 noundef 1, i32 noundef 0, ptr noundef nonnull %7)
  %40 = load i32, ptr %7, align 4
  call void (ptr, ptr, ...) @proto_item_append_text(ptr noundef %28, ptr noundef nonnull @.str.1160, i32 noundef %40)
  %41 = load i32, ptr @hf_zboss_trace_number, align 4
  %42 = call ptr @proto_tree_add_item(ptr noundef %30, i32 noundef %41, ptr noundef %0, i32 noundef 7, i32 noundef 4, i32 noundef -2147483648)
  %43 = call ptr @tvb_new_subset_remaining(ptr noundef %0, i32 noundef 11)
  br label %dissect_zboss_specific.exit

dissect_zboss_specific.exit:                      ; preds = %4, %10, %13, %16, %19, %22, %25
  %.0.i = phi ptr [ %43, %25 ], [ %0, %10 ], [ %0, %13 ], [ %0, %16 ], [ %0, %19 ], [ %0, %22 ], [ %0, %4 ]
  call void @llvm.lifetime.end.p0(i64 4, ptr nonnull %7) #19
  call void @llvm.lifetime.end.p0(i64 4, ptr nonnull %6) #19
  call void @llvm.lifetime.end.p0(i64 4, ptr nonnull %5) #19
  %44 = load i32, ptr @ieee802154_fcs_type, align 4
  %45 = icmp ult i32 %44, 3
  br i1 %45, label %46, label %ieee802154_fcs_type_len.exit

46:                                               ; preds = %dissect_zboss_specific.exit
  %47 = zext nneg i32 %44 to i64
  %48 = getelementptr [3 x i32], ptr @__const.ieee802154_fcs_type_len.fcs_type_lengths, i64 0, i64 %47
  %49 = load i32, ptr %48, align 4
  br label %ieee802154_fcs_type_len.exit

ieee802154_fcs_type_len.exit:                     ; preds = %dissect_zboss_specific.exit, %46
  %.0.i11 = phi i32 [ %49, %46 ], [ 0, %dissect_zboss_specific.exit ]
  %50 = icmp eq i32 %44, 0
  %spec.select = zext i1 %50 to i32
  %.not = icmp eq ptr %.0.i, %0
  %.1 = select i1 %.not, i32 %spec.select, i32 3
  %.0 = select i1 %.not, i32 %.0.i11, i32 2
  call fastcc void @dissect_ieee802154_common(ptr noundef %.0.i, ptr noundef %1, ptr noundef %2, i32 noundef %.0, i32 noundef %.1)
  %51 = call i32 @tvb_captured_length(ptr noundef %0)
  ret i32 %51
}